; Function Attrs: mustprogress null_pointer_is_valid sspstrong uwtable
define void @_ZN16ImportTextDialog33on_sourcePortLineEdit_textChangedERK7QString(ptr noundef align 8 captures(address_is_null) dereferenceable_or_null(305) %0, ptr noundef readonly align 8 captures(none) dereferenceable(24) %1) local_unnamed_addr #2 align 2 {
  %3 = getelementptr inbounds nuw i8, ptr %0, i64 40
  %4 = load ptr, ptr %3, align 8
  %5 = getelementptr inbounds nuw i8, ptr %4, i64 648
  %6 = load ptr, ptr %5, align 8
  %7 = getelementptr inbounds nuw i8, ptr %0, i64 299
  %8 = getelementptr inbounds nuw i8, ptr %0, i64 224
  tail call void @_ZN16ImportTextDialog15check_line_editEP14SyntaxLineEditRbRK7QStringijbPj(ptr noundef align 8 dereferenceable_or_null(305) %0, ptr noundef %6, ptr noundef nonnull align 1 dereferenceable(1) %7, ptr noundef align 8 dereferenceable(24) %1, i32 noundef 10, i32 noundef 65535, i1 noundef zeroext true, ptr noundef nonnull %8)
  ret void
}